target datalayout = "e-m:e-p270:32:32-p271:32:32-p272:64:64-i64:64-i128:128-f80:128-n8:16:32:64-S128"
target triple = "x86_64-pc-linux-gnu"

%union.pthread_mutex_t = type { %struct.__pthread_mutex_s }
%struct.__pthread_mutex_s = type { i32, i32, i32, i32, i32, i16, i16, %struct.__pthread_internal_list }
%struct.__pthread_internal_list = type { ptr, ptr }
%union.pthread_cond_t = type { %struct.__pthread_cond_s }
%struct.__pthread_cond_s = type { %union.__atomic_wide_counter, %union.__atomic_wide_counter, [2 x i32], [2 x i32], i32, i32, [2 x i32] }
%union.__atomic_wide_counter = type { i64 }
%struct.slurm_conf_t = type { i64, ptr, i16, ptr, ptr, ptr, ptr, ptr, i16, ptr, ptr, ptr, ptr, ptr, ptr, ptr, i16, ptr, ptr, ptr, ptr, i16, ptr, ptr, ptr, i64, ptr, ptr, ptr, ptr, i16, ptr, ptr, i16, i32, ptr, i32, ptr, i32, i32, ptr, ptr, i64, i64, ptr, i16, i16, ptr, i32, i32, ptr, i32, ptr, i32, i16, i16, i16, ptr, i16, i16, ptr, ptr, i32, i16, i16, ptr, i32, i16, ptr, ptr, ptr, ptr, i16, ptr, ptr, ptr, ptr, i32, ptr, ptr, ptr, ptr, i16, i16, ptr, i32, i32, i32, i16, i16, ptr, ptr, i16, ptr, ptr, i32, i32, i32, i32, i32, i64, i32, i32, i16, ptr, ptr, i32, ptr, ptr, ptr, i16, i32, ptr, ptr, i16, ptr, ptr, i32, i16, ptr, ptr, ptr, ptr, i32, i32, i16, i16, i32, ptr, i16, ptr, i32, i32, i32, i32, i32, i32, ptr, i16, ptr, ptr, i32, i16, ptr, i32, i16, i16, ptr, ptr, ptr, i16, ptr, ptr, ptr, ptr, i16, i16, ptr, i16, ptr, i16, ptr, i16, ptr, i16, ptr, ptr, ptr, ptr, i16, ptr, ptr, ptr, i32, ptr, i32, ptr, ptr, i16, ptr, ptr, i32, i16, ptr, ptr, i16, i16, ptr, i16, ptr, ptr, ptr, i32, ptr, i16, i16, ptr, ptr, ptr, ptr, ptr, ptr, ptr, ptr, i16, i32, i16, ptr, ptr, ptr, ptr, i32, ptr, ptr, ptr, i16, ptr, ptr, ptr, i16, ptr, i16, ptr, i16, i16, ptr }
%struct.log_options_t = type { i32, i32, i32, i8, i8, i8, i32 }
%struct.conmgr_callback_t = type { ptr, ptr, ptr }
%struct.conmgr_work_control_t = type { i32, i32, %struct.timespec, i32 }
%struct.timespec = type { i64, i64 }
%struct.slurmd_config = type { ptr, ptr, i32, [4096 x i8], ptr, ptr, ptr, ptr, i16, i16, i16, i16, ptr, i16, i64, i16, i16, i16, i16, i16, i16, i16, i16, i16, i16, i16, i64, i64, i32, i32, i16, ptr, ptr, ptr, i32, ptr, ptr, ptr, ptr, ptr, ptr, ptr, ptr, ptr, ptr, i32, ptr, ptr, i16, i32, i32, %struct.log_options_t, i32, i16, i64, i8, i8, i8, i8, i8, %union.pthread_mutex_t, i16, ptr, %union.pthread_cond_t, ptr, %union.pthread_cond_t, i8, i8, ptr, ptr }
%struct.slurm_msg = type { %struct.sockaddr_storage, ptr, i32, i32, i32, i8, i32, i8, i32, ptr, ptr, i32, ptr, ptr, i16, i8, i16, i16, %struct.forward, ptr, %struct.sockaddr_storage, ptr }
%struct.forward = type { %struct.slurm_node_alias_addrs_t, i16, i16, ptr, i32, i16, i16 }
%struct.slurm_node_alias_addrs_t = type { i64, ptr, ptr, i32, ptr }
%struct.sockaddr_storage = type { i16, [118 x i8], i64 }
%struct.return_code_msg = type { i32 }
%struct.tls_cert_request_msg_t = type { ptr, ptr, ptr }
%struct.tls_cert_response_msg_t = type { ptr }

@conf = dso_local global ptr null, align 8
@slurm_conf = external global %struct.slurm_conf_t, align 8
@working_cluster_rec = external global ptr, align 8
@.str.86 = private unnamed_addr constant [137 x i8] c"TLS: certmgr not enabled, skipping process to get signed TLS certificate from slurmctld (assume node already has signed TLS certificate)\00", align 1
@.str.87 = private unnamed_addr constant [19 x i8] c"_get_tls_cert_work\00", align 1
@__func__._get_tls_certificate = private unnamed_addr constant [21 x i8] c"_get_tls_certificate\00", align 1
@.str.88 = private unnamed_addr constant [36 x i8] c"%s: Failed to get unique node token\00", align 1
@.str.89 = private unnamed_addr constant [51 x i8] c"%s: Failed to generate certificate signing request\00", align 1
@.str.90 = private unnamed_addr constant [49 x i8] c"Unable to get TLS certificate from slurmctld: %m\00", align 1
@.str.91 = private unnamed_addr constant [54 x i8] c"%s: slurmctld response to TLS certificate request: %s\00", align 1
@.str.92 = private unnamed_addr constant [53 x i8] c"%s: slurmctld responded with unexpected msg type: %s\00", align 1
@.str.93 = private unnamed_addr constant [61 x i8] c"TLS: Successfully got signed certificate from slurmctld: \0A%s\00", align 1

; Function Attrs: nounwind uwtable
define internal i32 @_get_tls_certificate() #0 {
  %1 = alloca i32, align 4
  %2 = alloca %struct.slurm_msg, align 8
  %3 = alloca %struct.slurm_msg, align 8
  %4 = alloca %struct.tls_cert_request_msg_t, align 8
  %5 = alloca ptr, align 8
  %6 = alloca i32, align 4
  %7 = alloca %struct.conmgr_callback_t, align 8
  %8 = alloca %struct.conmgr_work_control_t, align 8
  %9 = alloca i32, align 4
  call void @llvm.lifetime.start.p0(i64 424, ptr %2) #11
  call void @llvm.lifetime.start.p0(i64 424, ptr %3) #11
  call void @llvm.lifetime.start.p0(i64 24, ptr %4) #11
  call void @llvm.memset.p0.i64(ptr align 8 %4, i8 0, i64 24, i1 false)
  call void @llvm.lifetime.start.p0(i64 8, ptr %5) #11
  call void @slurm_msg_t_init(ptr noundef %2)
  call void @slurm_msg_t_init(ptr noundef %3)
  %10 = call zeroext i1 @certmgr_enabled()
  br i1 %10, label %27, label %11

11:                                               ; preds = %0
  br label %12

12:                                               ; preds = %11
  %13 = load i64, ptr getelementptr inbounds nuw (%struct.slurm_conf_t, ptr @slurm_conf, i32 0, i32 42), align 8
  %14 = and i64 %13, 524288
  %15 = icmp ne i64 %14, 0
  br i1 %15, label %16, label %24

16:                                               ; preds = %12
  br label %17

17:                                               ; preds = %16
  %18 = call i32 @get_log_level()
  %19 = icmp sge i32 %18, 4
  br i1 %19, label %20, label %21

20:                                               ; preds = %17
  call void (i32, ptr, ...) @log_var(i32 noundef 4, ptr noundef @.str.86)
  br label %21

21:                                               ; preds = %20, %17
  br label %22

22:                                               ; preds = %21
  br label %23

23:                                               ; preds = %22
  br label %24

24:                                               ; preds = %23, %12
  br label %25

25:                                               ; preds = %24
  br label %26

26:                                               ; preds = %25
  store i32 0, ptr %1, align 4
  store i32 1, ptr %6, align 4
  br label %112

27:                                               ; preds = %0
  %28 = getelementptr inbounds nuw %struct.conmgr_callback_t, ptr %7, i32 0, i32 0
  store ptr @_get_tls_cert_work, ptr %28, align 8
  %29 = getelementptr inbounds nuw %struct.conmgr_callback_t, ptr %7, i32 0, i32 1
  store ptr null, ptr %29, align 8
  %30 = getelementptr inbounds nuw %struct.conmgr_callback_t, ptr %7, i32 0, i32 2
  store ptr @.str.87, ptr %30, align 8
  %31 = getelementptr inbounds nuw %struct.conmgr_work_control_t, ptr %8, i32 0, i32 0
  store i32 1, ptr %31, align 8
  %32 = getelementptr inbounds nuw %struct.conmgr_work_control_t, ptr %8, i32 0, i32 1
  store i32 8, ptr %32, align 4
  %33 = getelementptr inbounds nuw %struct.conmgr_work_control_t, ptr %8, i32 0, i32 2
  %34 = call i32 @certmgr_get_renewal_period_mins()
  %35 = mul nsw i32 %34, 60
  %36 = sext i32 %35 to i64
  %37 = call { i64, i64 } @conmgr_calc_work_time_delay(i64 noundef %36, i64 noundef 0)
  %38 = getelementptr inbounds nuw { i64, i64 }, ptr %33, i32 0, i32 0
  %39 = extractvalue { i64, i64 } %37, 0
  store i64 %39, ptr %38, align 8
  %40 = getelementptr inbounds nuw { i64, i64 }, ptr %33, i32 0, i32 1
  %41 = extractvalue { i64, i64 } %37, 1
  store i64 %41, ptr %40, align 8
  %42 = getelementptr inbounds nuw %struct.conmgr_work_control_t, ptr %8, i32 0, i32 3
  store i32 0, ptr %42, align 8
  %43 = getelementptr i8, ptr %8, i64 28
  call void @llvm.memset.p0.i64(ptr align 4 %43, i8 0, i64 4, i1 false)
  call void @conmgr_add_work(ptr noundef null, ptr noundef byval(%struct.conmgr_callback_t) align 8 %7, ptr noundef byval(%struct.conmgr_work_control_t) align 8 %8, ptr noundef @__func__._get_tls_certificate)
  %44 = load ptr, ptr @conf, align 8
  %45 = getelementptr inbounds nuw %struct.slurmd_config, ptr %44, i32 0, i32 35
  %46 = load ptr, ptr %45, align 8
  %47 = call ptr @certmgr_g_get_node_token(ptr noundef %46)
  %48 = getelementptr inbounds nuw %struct.tls_cert_request_msg_t, ptr %4, i32 0, i32 2
  store ptr %47, ptr %48, align 8
  %49 = icmp ne ptr %47, null
  br i1 %49, label %52, label %50

50:                                               ; preds = %27
  %51 = call i32 (ptr, ...) @error(ptr noundef @.str.88, ptr noundef @__func__._get_tls_certificate)
  store i32 -1, ptr %1, align 4
  store i32 1, ptr %6, align 4
  br label %112

52:                                               ; preds = %27
  %53 = load ptr, ptr @conf, align 8
  %54 = getelementptr inbounds nuw %struct.slurmd_config, ptr %53, i32 0, i32 35
  %55 = load ptr, ptr %54, align 8
  %56 = call ptr @certmgr_g_generate_csr(ptr noundef %55)
  %57 = getelementptr inbounds nuw %struct.tls_cert_request_msg_t, ptr %4, i32 0, i32 0
  store ptr %56, ptr %57, align 8
  %58 = icmp ne ptr %56, null
  br i1 %58, label %61, label %59

59:                                               ; preds = %52
  %60 = call i32 (ptr, ...) @error(ptr noundef @.str.89, ptr noundef @__func__._get_tls_certificate)
  store i32 -1, ptr %1, align 4
  store i32 1, ptr %6, align 4
  br label %112

61:                                               ; preds = %52
  %62 = load ptr, ptr @conf, align 8
  %63 = getelementptr inbounds nuw %struct.slurmd_config, ptr %62, i32 0, i32 35
  %64 = load ptr, ptr %63, align 8
  %65 = call ptr @xstrdup(ptr noundef %64)
  %66 = getelementptr inbounds nuw %struct.tls_cert_request_msg_t, ptr %4, i32 0, i32 1
  store ptr %65, ptr %66, align 8
  %67 = getelementptr inbounds nuw %struct.slurm_msg, ptr %2, i32 0, i32 16
  store i16 2300, ptr %67, align 4
  %68 = getelementptr inbounds nuw %struct.slurm_msg, ptr %2, i32 0, i32 13
  store ptr %4, ptr %68, align 8
  %69 = load ptr, ptr @working_cluster_rec, align 8
  %70 = call i32 @slurm_send_recv_controller_msg(ptr noundef %2, ptr noundef %3, ptr noundef %69)
  %71 = icmp slt i32 %70, 0
  br i1 %71, label %72, label %74

72:                                               ; preds = %61
  %73 = call i32 (ptr, ...) @error(ptr noundef @.str.90)
  store i32 -1, ptr %1, align 4
  store i32 1, ptr %6, align 4
  br label %112

74:                                               ; preds = %61
  %75 = getelementptr inbounds nuw %struct.slurm_msg, ptr %3, i32 0, i32 16
  %76 = load i16, ptr %75, align 4
  %77 = zext i16 %76 to i32
  switch i32 %77, label %86 [
    i32 2301, label %91
    i32 8001, label %78
  ]

78:                                               ; preds = %74
  call void @llvm.lifetime.start.p0(i64 4, ptr %9) #11
  %79 = getelementptr inbounds nuw %struct.slurm_msg, ptr %3, i32 0, i32 13
  %80 = load ptr, ptr %79, align 8
  %81 = getelementptr inbounds nuw %struct.return_code_msg, ptr %80, i32 0, i32 0
  %82 = load i32, ptr %81, align 4
  store i32 %82, ptr %9, align 4
  %83 = load i32, ptr %9, align 4
  %84 = call ptr @slurm_strerror(i32 noundef %83)
  %85 = call i32 (ptr, ...) @error(ptr noundef @.str.91, ptr noundef @__func__._get_tls_certificate, ptr noundef %84)
  store i32 -1, ptr %1, align 4
  store i32 1, ptr %6, align 4
  call void @llvm.lifetime.end.p0(i64 4, ptr %9) #11
  br label %112

86:                                               ; preds = %74
  %87 = getelementptr inbounds nuw %struct.slurm_msg, ptr %3, i32 0, i32 16
  %88 = load i16, ptr %87, align 4
  %89 = call ptr @rpc_num2string(i16 noundef zeroext %88)
  %90 = call i32 (ptr, ...) @error(ptr noundef @.str.92, ptr noundef @__func__._get_tls_certificate, ptr noundef %89)
  store i32 -1, ptr %1, align 4
  store i32 1, ptr %6, align 4
  br label %112

91:                                               ; preds = %74
  %92 = getelementptr inbounds nuw %struct.slurm_msg, ptr %3, i32 0, i32 13
  %93 = load ptr, ptr %92, align 8
  store ptr %93, ptr %5, align 8
  br label %94

94:                                               ; preds = %91
  %95 = load i64, ptr getelementptr inbounds nuw (%struct.slurm_conf_t, ptr @slurm_conf, i32 0, i32 42), align 8
  %96 = and i64 %95, 524288
  %97 = icmp ne i64 %96, 0
  br i1 %97, label %98, label %109

98:                                               ; preds = %94
  br label %99

99:                                               ; preds = %98
  %100 = call i32 @get_log_level()
  %101 = icmp sge i32 %100, 4
  br i1 %101, label %102, label %106

102:                                              ; preds = %99
  %103 = load ptr, ptr %5, align 8
  %104 = getelementptr inbounds nuw %struct.tls_cert_response_msg_t, ptr %103, i32 0, i32 0
  %105 = load ptr, ptr %104, align 8
  call void (i32, ptr, ...) @log_var(i32 noundef 4, ptr noundef @.str.93, ptr noundef %105)
  br label %106

106:                                              ; preds = %102, %99
  br label %107

107:                                              ; preds = %106
  br label %108

108:                                              ; preds = %107
  br label %109

109:                                              ; preds = %108, %94
  br label %110

110:                                              ; preds = %109
  br label %111

111:                                              ; preds = %110
  store i32 0, ptr %1, align 4
  store i32 1, ptr %6, align 4
  br label %112

112:                                              ; preds = %111, %86, %78, %72, %59, %50, %26
  call void @llvm.lifetime.end.p0(i64 8, ptr %5) #11
  call void @llvm.lifetime.end.p0(i64 24, ptr %4) #11
  call void @llvm.lifetime.end.p0(i64 424, ptr %3) #11
  call void @llvm.lifetime.end.p0(i64 424, ptr %2) #11
  %113 = load i32, ptr %1, align 4
  ret i32 %113
}