; Function Attrs: nounwind uwtable
define internal fastcc range(i32 -1, 1) i32 @_get_tls_certificate() unnamed_addr #0 {
  %1 = alloca %struct.slurm_msg, align 8
  %2 = alloca %struct.slurm_msg, align 8
  %3 = alloca %struct.tls_cert_request_msg_t, align 8
  %4 = alloca %struct.conmgr_callback_t, align 8
  %5 = alloca %struct.conmgr_work_control_t, align 8
  call void @llvm.lifetime.start.p0(i64 424, ptr nonnull %1) #18
  call void @llvm.lifetime.start.p0(i64 424, ptr nonnull %2) #18
  call void @llvm.lifetime.start.p0(i64 24, ptr nonnull %3) #18
  call void @llvm.memset.p0.i64(ptr noundef nonnull align 8 dereferenceable(24) %3, i8 0, i64 16, i1 false)
  call void @slurm_msg_t_init(ptr noundef nonnull %1) #18
  call void @slurm_msg_t_init(ptr noundef nonnull %2) #18
  %6 = call zeroext i1 @certmgr_enabled() #18
  br i1 %6, label %14, label %7

7:                                                ; preds = %0
  %8 = load i64, ptr getelementptr inbounds nuw (i8, ptr @slurm_conf, i64 320), align 8
  %9 = and i64 %8, 524288
  %.not = icmp eq i64 %9, 0
  br i1 %.not, label %77, label %10

10:                                               ; preds = %7
  %11 = call i32 @get_log_level() #18
  %12 = icmp sgt i32 %11, 3
  br i1 %12, label %13, label %77

13:                                               ; preds = %10
  call void (i32, ptr, ...) @log_var(i32 noundef 4, ptr noundef nonnull @.str.86) #18
  br label %77

14:                                               ; preds = %0
  store ptr @_get_tls_cert_work, ptr %4, align 8
  %15 = getelementptr inbounds nuw i8, ptr %4, i64 8
  store ptr null, ptr %15, align 8
  %16 = getelementptr inbounds nuw i8, ptr %4, i64 16
  store ptr @.str.87, ptr %16, align 8
  store i32 1, ptr %5, align 8
  %17 = getelementptr inbounds nuw i8, ptr %5, i64 4
  store i32 8, ptr %17, align 4
  %18 = getelementptr inbounds nuw i8, ptr %5, i64 8
  %19 = call i32 @certmgr_get_renewal_period_mins() #18
  %20 = mul nsw i32 %19, 60
  %21 = sext i32 %20 to i64
  %22 = call { i64, i64 } @conmgr_calc_work_time_delay(i64 noundef %21, i64 noundef 0) #18
  %23 = extractvalue { i64, i64 } %22, 0
  store i64 %23, ptr %18, align 8
  %24 = getelementptr inbounds nuw i8, ptr %5, i64 16
  %25 = extractvalue { i64, i64 } %22, 1
  store i64 %25, ptr %24, align 8
  %26 = getelementptr inbounds nuw i8, ptr %5, i64 24
  store i32 0, ptr %26, align 8
  %27 = getelementptr inbounds nuw i8, ptr %5, i64 28
  store i32 0, ptr %27, align 4
  call void @conmgr_add_work(ptr noundef null, ptr noundef nonnull byval(%struct.conmgr_callback_t) align 8 %4, ptr noundef nonnull byval(%struct.conmgr_work_control_t) align 8 %5, ptr noundef nonnull @__func__._get_tls_certificate) #18
  %28 = load ptr, ptr @conf, align 8
  %29 = getelementptr inbounds nuw i8, ptr %28, i64 4272
  %30 = load ptr, ptr %29, align 8
  %31 = call ptr @certmgr_g_get_node_token(ptr noundef %30) #18
  %32 = getelementptr inbounds nuw i8, ptr %3, i64 16
  store ptr %31, ptr %32, align 8
  %.not2 = icmp eq ptr %31, null
  br i1 %.not2, label %33, label %35

33:                                               ; preds = %14
  %34 = call i32 (ptr, ...) @error(ptr noundef nonnull @.str.88, ptr noundef nonnull @__func__._get_tls_certificate) #18
  br label %77

35:                                               ; preds = %14
  %36 = load ptr, ptr @conf, align 8
  %37 = getelementptr inbounds nuw i8, ptr %36, i64 4272
  %38 = load ptr, ptr %37, align 8
  %39 = call ptr @certmgr_g_generate_csr(ptr noundef %38) #18
  store ptr %39, ptr %3, align 8
  %.not3 = icmp eq ptr %39, null
  br i1 %.not3, label %40, label %42

40:                                               ; preds = %35
  %41 = call i32 (ptr, ...) @error(ptr noundef nonnull @.str.89, ptr noundef nonnull @__func__._get_tls_certificate) #18
  br label %77

42:                                               ; preds = %35
  %43 = load ptr, ptr @conf, align 8
  %44 = getelementptr inbounds nuw i8, ptr %43, i64 4272
  %45 = load ptr, ptr %44, align 8
  %46 = call ptr @xstrdup(ptr noundef %45) #18
  %47 = getelementptr inbounds nuw i8, ptr %3, i64 8
  store ptr %46, ptr %47, align 8
  %48 = getelementptr inbounds nuw i8, ptr %1, i64 212
  store i16 2300, ptr %48, align 4
  %49 = getelementptr inbounds nuw i8, ptr %1, i64 200
  store ptr %3, ptr %49, align 8
  %50 = load ptr, ptr @working_cluster_rec, align 8
  %51 = call i32 @slurm_send_recv_controller_msg(ptr noundef nonnull %1, ptr noundef nonnull %2, ptr noundef %50) #18
  %52 = icmp slt i32 %51, 0
  br i1 %52, label %53, label %55

53:                                               ; preds = %42
  %54 = call i32 (ptr, ...) @error(ptr noundef nonnull @.str.90) #18
  br label %77

55:                                               ; preds = %42
  %56 = getelementptr inbounds nuw i8, ptr %2, i64 212
  %57 = load i16, ptr %56, align 4
  switch i16 %57, label %64 [
    i16 2301, label %67
    i16 8001, label %58
  ]

58:                                               ; preds = %55
  %59 = getelementptr inbounds nuw i8, ptr %2, i64 200
  %60 = load ptr, ptr %59, align 8
  %61 = load i32, ptr %60, align 4
  %62 = call ptr @slurm_strerror(i32 noundef %61) #18
  %63 = call i32 (ptr, ...) @error(ptr noundef nonnull @.str.91, ptr noundef nonnull @__func__._get_tls_certificate, ptr noundef %62) #18
  br label %77

64:                                               ; preds = %55
  %65 = call ptr @rpc_num2string(i16 noundef zeroext %57) #18
  %66 = call i32 (ptr, ...) @error(ptr noundef nonnull @.str.92, ptr noundef nonnull @__func__._get_tls_certificate, ptr noundef %65) #18
  br label %77

67:                                               ; preds = %55
  %68 = getelementptr inbounds nuw i8, ptr %2, i64 200
  %69 = load ptr, ptr %68, align 8
  %70 = load i64, ptr getelementptr inbounds nuw (i8, ptr @slurm_conf, i64 320), align 8
  %71 = and i64 %70, 524288
  %.not4 = icmp eq i64 %71, 0
  br i1 %.not4, label %77, label %72

72:                                               ; preds = %67
  %73 = call i32 @get_log_level() #18
  %74 = icmp sgt i32 %73, 3
  br i1 %74, label %75, label %77

75:                                               ; preds = %72
  %76 = load ptr, ptr %69, align 8
  call void (i32, ptr, ...) @log_var(i32 noundef 4, ptr noundef nonnull @.str.93, ptr noundef %76) #18
  br label %77

77:                                               ; preds = %67, %75, %72, %7, %13, %10, %64, %58, %53, %40, %33
  %.0 = phi i32 [ -1, %53 ], [ -1, %64 ], [ -1, %58 ], [ -1, %40 ], [ -1, %33 ], [ 0, %10 ], [ 0, %13 ], [ 0, %7 ], [ 0, %72 ], [ 0, %75 ], [ 0, %67 ]
  call void @llvm.lifetime.end.p0(i64 24, ptr nonnull %3) #18
  call void @llvm.lifetime.end.p0(i64 424, ptr nonnull %2) #18
  call void @llvm.lifetime.end.p0(i64 424, ptr nonnull %1) #18
  ret i32 %.0
}